; ModuleID = '60/1679.c'
source_filename = "60/1679.c"
target datalayout = "e-m:e-p270:32:32-p271:32:32-p272:64:64-i64:64-f80:128-n8:16:32:64-S128"
target triple = "x86_64-pc-linux-gnu"

@.str = private unnamed_addr constant [3 x i8] c"%d\00", align 1
@.str.1 = private unnamed_addr constant [6 x i8] c"%d %d\00", align 1
@.str.2 = private unnamed_addr constant [7 x i8] c"\0A%d %d\00", align 1
@.str.3 = private unnamed_addr constant [6 x i8] c"empty\00", align 1

; Function Attrs: noinline nounwind uwtable
define dso_local i32 @main() #0 {
  %1 = alloca i32, align 4
  %2 = alloca i32, align 4
  %3 = alloca i32, align 4
  %4 = alloca i32, align 4
  %5 = alloca i32, align 4
  %6 = alloca i32, align 4
  %7 = alloca i32, align 4
  store i32 0, i32* %1, align 4
  store i32 0, i32* %7, align 4
  %8 = call i32 (i8*, ...) @__isoc99_scanf(i8* getelementptr inbounds ([3 x i8], [3 x i8]* @.str, i64 0, i64 0), i32* %3)
  store i32 3, i32* %2, align 4
  br label %9

9:                                                ; preds = %46, %0
  %10 = load i32, i32* %2, align 4
  %11 = load i32, i32* %3, align 4
  %12 = sub nsw i32 %11, 2
  %13 = icmp sle i32 %10, %12
  br i1 %13, label %14, label %49

14:                                               ; preds = %9
  %15 = load i32, i32* %2, align 4
  %16 = call i32 @pdss(i32 %15)
  store i32 %16, i32* %4, align 4
  %17 = load i32, i32* %4, align 4
  %18 = icmp eq i32 %17, 1
  br i1 %18, label %19, label %45

19:                                               ; preds = %14
  %20 = load i32, i32* %2, align 4
  %21 = add nsw i32 %20, 2
  store i32 %21, i32* %5, align 4
  %22 = load i32, i32* %5, align 4
  %23 = call i32 @pdss(i32 %22)
  store i32 %23, i32* %6, align 4
  %24 = load i32, i32* %6, align 4
  %25 = icmp eq i32 %24, 1
  br i1 %25, label %26, label %42

26:                                               ; preds = %19
  store i32 1, i32* %7, align 4
  %27 = load i32, i32* %2, align 4
  %28 = icmp eq i32 %27, 3
  br i1 %28, label %29, label %33

29:                                               ; preds = %26
  %30 = load i32, i32* %2, align 4
  %31 = load i32, i32* %5, align 4
  %32 = call i32 (i8*, ...) @printf(i8* getelementptr inbounds ([6 x i8], [6 x i8]* @.str.1, i64 0, i64 0), i32 %30, i32 %31)
  br label %41

33:                                               ; preds = %26
  %34 = load i32, i32* %2, align 4
  %35 = icmp ne i32 %34, 3
  br i1 %35, label %36, label %40

36:                                               ; preds = %33
  %37 = load i32, i32* %2, align 4
  %38 = load i32, i32* %5, align 4
  %39 = call i32 (i8*, ...) @printf(i8* getelementptr inbounds ([7 x i8], [7 x i8]* @.str.2, i64 0, i64 0), i32 %37, i32 %38)
  br label %40

40:                                               ; preds = %36, %33
  br label %41

41:                                               ; preds = %40, %29
  br label %42

42:                                               ; preds = %41, %19
  %43 = load i32, i32* %2, align 4
  %44 = add nsw i32 %43, 1
  store i32 %44, i32* %2, align 4
  br label %45

45:                                               ; preds = %42, %14
  br label %46

46:                                               ; preds = %45
  %47 = load i32, i32* %2, align 4
  %48 = add nsw i32 %47, 1
  store i32 %48, i32* %2, align 4
  br label %9

49:                                               ; preds = %9
  %50 = load i32, i32* %7, align 4
  %51 = icmp eq i32 %50, 0
  br i1 %51, label %52, label %54

52:                                               ; preds = %49
  %53 = call i32 (i8*, ...) @printf(i8* getelementptr inbounds ([6 x i8], [6 x i8]* @.str.3, i64 0, i64 0))
  br label %54

54:                                               ; preds = %52, %49
  ret i32 0
}

declare dso_local i32 @__isoc99_scanf(i8*, ...) #1

; Function Attrs: noinline nounwind uwtable
define dso_local i32 @pdss(i32 %0) #0 {
  %2 = alloca i32, align 4
  %3 = alloca i32, align 4
  %4 = alloca i32, align 4
  %5 = alloca i32, align 4
  store i32 %0, i32* %3, align 4
  store i32 0, i32* %5, align 4
  store i32 2, i32* %4, align 4
  br label %6

6:                                                ; preds = %19, %1
  %7 = load i32, i32* %4, align 4
  %8 = load i32, i32* %3, align 4
  %9 = icmp slt i32 %7, %8
  br i1 %9, label %10, label %22

10:                                               ; preds = %6
  %11 = load i32, i32* %3, align 4
  %12 = load i32, i32* %4, align 4
  %13 = srem i32 %11, %12
  %14 = icmp eq i32 %13, 0
  br i1 %14, label %15, label %18

15:                                               ; preds = %10
  %16 = load i32, i32* %5, align 4
  %17 = add nsw i32 %16, 1
  store i32 %17, i32* %5, align 4
  br label %18

18:                                               ; preds = %15, %10
  br label %19

19:                                               ; preds = %18
  %20 = load i32, i32* %4, align 4
  %21 = add nsw i32 %20, 1
  store i32 %21, i32* %4, align 4
  br label %6

22:                                               ; preds = %6
  %23 = load i32, i32* %5, align 4
  %24 = icmp eq i32 %23, 0
  br i1 %24, label %25, label %26

25:                                               ; preds = %22
  store i32 1, i32* %2, align 4
  br label %31

26:                                               ; preds = %22
  %27 = load i32, i32* %5, align 4
  %28 = icmp sgt i32 %27, 0
  br i1 %28, label %29, label %30

29:                                               ; preds = %26
  store i32 0, i32* %2, align 4
  br label %31

30:                                               ; preds = %26
  br label %31

31:                                               ; preds = %25, %29, %30
  %32 = load i32, i32* %2, align 4
  ret i32 %32
}

declare dso_local i32 @printf(i8*, ...) #1


!llvm.module.flags = !{!0}
!llvm.ident = !{!1}

!0 = !{i32 1, !"wchar_size", i32 4}
!1 = !{!"clang version 10.0.0-4ubuntu1 "}
